target datalayout = "e-m:e-p270:32:32-p271:32:32-p272:64:64-i64:64-i128:128-f80:128-n8:16:32:64-S128"
target triple = "x86_64-pc-linux-gnu"

; Function Attrs: inlinehint nounwind sspstrong willreturn memory(none) uwtable
define internal i64 @RB_INT2FIX(i64 noundef %0) #4 {
  %2 = alloca i64, align 8
  %3 = alloca i64, align 8
  %4 = alloca i64, align 8
  %5 = alloca i64, align 8
  %6 = alloca i64, align 8
  %7 = alloca i64, align 8
  store i64 %0, ptr %2, align 8, !tbaa !35
  call void @llvm.lifetime.start.p0(i64 8, ptr %3) #27
  %8 = load i64, ptr %2, align 8, !tbaa !35
  store i64 %8, ptr %3, align 8, !tbaa !35
  call void @llvm.lifetime.start.p0(i64 8, ptr %4) #27
  %9 = load i64, ptr %3, align 8, !tbaa !35
  %10 = shl i64 %9, 1
  %11 = add i64 %10, 1
  store i64 %11, ptr %4, align 8, !tbaa !35
  call void @llvm.lifetime.start.p0(i64 8, ptr %5) #27
  %12 = load i64, ptr %4, align 8, !tbaa !35
  store i64 %12, ptr %5, align 8, !tbaa !35
  call void @llvm.lifetime.start.p0(i64 8, ptr %6) #27
  %13 = load i64, ptr %5, align 8, !tbaa !35
  store i64 %13, ptr %6, align 8, !tbaa !35
  call void @llvm.lifetime.start.p0(i64 8, ptr %7) #27
  %14 = load i64, ptr %6, align 8, !tbaa !35
  store i64 %14, ptr %7, align 8, !tbaa !35
  %15 = load i64, ptr %7, align 8, !tbaa !35
  call void @llvm.lifetime.end.p0(i64 8, ptr %7) #27
  call void @llvm.lifetime.end.p0(i64 8, ptr %6) #27
  call void @llvm.lifetime.end.p0(i64 8, ptr %5) #27
  call void @llvm.lifetime.end.p0(i64 8, ptr %4) #27
  call void @llvm.lifetime.end.p0(i64 8, ptr %3) #27
  ret i64 %15
}

; Function Attrs: inlinehint nounwind sspstrong uwtable
define internal i64 @rb_uint2num_inline(i32 noundef %0) #1 {
  %2 = alloca i64, align 8
  %3 = alloca i32, align 4
  store i32 %0, ptr %3, align 4, !tbaa !34
  %4 = load i32, ptr %3, align 4, !tbaa !34
  %5 = zext i32 %4 to i64
  %6 = icmp slt i64 %5, 4611686018427387904
  br i1 %6, label %7, label %11

7:                                                ; preds = %1
  %8 = load i32, ptr %3, align 4, !tbaa !34
  %9 = zext i32 %8 to i64
  %10 = call i64 @RB_INT2FIX(i64 noundef %9) #28
  store i64 %10, ptr %2, align 8
  br label %15

11:                                               ; preds = %1
  %12 = load i32, ptr %3, align 4, !tbaa !34
  %13 = zext i32 %12 to i64
  %14 = call i64 @rb_uint2big(i64 noundef %13)
  store i64 %14, ptr %2, align 8
  br label %15

15:                                               ; preds = %11, %7
  %16 = load i64, ptr %2, align 8
  ret i64 %16
}

; Function Attrs: inlinehint nounwind sspstrong uwtable
define internal i32 @obj2uid0(i64 noundef %0) #1 {
  %2 = alloca i64, align 8
  %3 = alloca i32, align 4
  %4 = alloca i64, align 8
  store i64 %0, ptr %2, align 8, !tbaa !35
  call void @llvm.lifetime.start.p0(i64 4, ptr %3) #27
  call void @llvm.lifetime.start.p0(i64 8, ptr %4) #27
  store i64 0, ptr %4, align 8, !tbaa !35
  %5 = load i64, ptr %2, align 8, !tbaa !35
  %6 = call i32 @obj2uid(i64 noundef %5, ptr noundef %4)
  store i32 %6, ptr %3, align 4, !tbaa !34
  %7 = load i64, ptr %4, align 8, !tbaa !35
  %8 = icmp ne i64 %7, 0
  br i1 %8, label %9, label %12

9:                                                ; preds = %1
  %10 = load i64, ptr %4, align 8, !tbaa !35
  %11 = call i64 @rb_str_resize(i64 noundef %10, i64 noundef 0)
  br label %13

12:                                               ; preds = %1
  br label %13

13:                                               ; preds = %12, %9
  %14 = load i32, ptr %3, align 4, !tbaa !34
  call void @llvm.lifetime.end.p0(i64 8, ptr %4) #27
  call void @llvm.lifetime.end.p0(i64 4, ptr %3) #27
  ret i32 %14
}

; Function Attrs: nounwind sspstrong uwtable
define internal i64 @p_uid_from_name(i64 noundef %0, i64 noundef %1) #0 {
  %3 = alloca i64, align 8
  %4 = alloca i64, align 8
  store i64 %0, ptr %3, align 8, !tbaa !35
  store i64 %1, ptr %4, align 8, !tbaa !35
  %5 = load i64, ptr %4, align 8, !tbaa !35
  %6 = call i32 @obj2uid0(i64 noundef %5)
  %7 = call i64 @rb_uint2num_inline(i32 noundef %6)
  ret i64 %7
}