; Function Attrs: nounwind sspstrong uwtable
define internal range(i64 1, 8589934592) i64 @p_uid_from_name(i64 %0, i64 noundef %1) #1 {
  %3 = alloca i64, align 8
  call void @llvm.lifetime.start.p0(i64 8, ptr nonnull %3) #27
  store i64 0, ptr %3, align 8, !tbaa !43
  %4 = call fastcc i32 @obj2uid(i64 noundef %1, ptr noundef %3)
  %5 = load i64, ptr %3, align 8, !tbaa !43
  %.not.i = icmp eq i64 %5, 0
  br i1 %.not.i, label %obj2uid0.exit, label %6

6:                                                ; preds = %2
  %7 = tail call i64 @rb_str_resize(i64 noundef %5, i64 noundef 0) #27
  br label %obj2uid0.exit

obj2uid0.exit:                                    ; preds = %2, %6
  call void @llvm.lifetime.end.p0(i64 8, ptr nonnull %3) #27
  %8 = zext i32 %4 to i64
  %9 = shl nuw nsw i64 %8, 1
  %10 = or disjoint i64 %9, 1
  ret i64 %10
}